; Function Attrs: mustprogress uwtable
define dso_local noundef ptr @_ZN4Luau9TypeArena11addTypePackESt6vectorIPKNS_4TypeESaIS4_EESt8optionalIPKNS_11TypePackVarEE(ptr noundef nonnull align 8 dereferenceable(88) %0, ptr noundef captures(none) %1, ptr %2, i8 %3) local_unnamed_addr #1 align 2 personality ptr @__gxx_personality_v0 {
  %5 = alloca %"struct.Luau::TypePack", align 8
  %6 = getelementptr inbounds nuw i8, ptr %0, i64 40
  %7 = load ptr, ptr %1, align 8
  store ptr %7, ptr %5, align 8
  %8 = getelementptr inbounds nuw i8, ptr %5, i64 8
  %9 = getelementptr inbounds nuw i8, ptr %1, i64 8
  %10 = load ptr, ptr %9, align 8
  store ptr %10, ptr %8, align 8
  %11 = getelementptr inbounds nuw i8, ptr %5, i64 16
  %12 = getelementptr inbounds nuw i8, ptr %1, i64 16
  %13 = load ptr, ptr %12, align 8
  store ptr %13, ptr %11, align 8
  tail call void @llvm.memset.p0.i64(ptr noundef nonnull align 8 dereferenceable(24) %1, i8 0, i64 24, i1 false)
  %14 = getelementptr inbounds nuw i8, ptr %5, i64 24
  store ptr %2, ptr %14, align 8
  %.sroa.2.0..sroa_idx = getelementptr inbounds nuw i8, ptr %5, i64 32
  store i8 %3, ptr %.sroa.2.0..sroa_idx, align 8
  %15 = invoke noundef ptr @_ZN4Luau14TypedAllocatorINS_11TypePackVarEE8allocateIJNS_8TypePackEEEEPS1_DpOT_(ptr noundef nonnull align 8 dereferenceable(40) %6, ptr noundef nonnull align 8 dereferenceable(40) %5)
          to label %16 unwind label %25

16:                                               ; preds = %4
  %17 = load ptr, ptr %5, align 8
  %.not.i.i.i.i = icmp eq ptr %17, null
  br i1 %.not.i.i.i.i, label %_ZN4Luau8TypePackD2Ev.exit, label %18

18:                                               ; preds = %16
  %19 = load ptr, ptr %11, align 8
  %20 = ptrtoint ptr %19 to i64
  %21 = ptrtoint ptr %17 to i64
  %22 = sub i64 %20, %21
  call void @_ZdlPvm(ptr noundef nonnull %17, i64 noundef %22) #20
  br label %_ZN4Luau8TypePackD2Ev.exit

_ZN4Luau8TypePackD2Ev.exit:                       ; preds = %16, %18
  %23 = call noundef ptr @_ZN4Luau9asMutableEPKNS_11TypePackVarE(ptr noundef %15)
  %24 = getelementptr inbounds nuw i8, ptr %23, i64 80
  store ptr %0, ptr %24, align 8
  ret ptr %15

25:                                               ; preds = %4
  %26 = landingpad { ptr, i32 }
          cleanup
  %27 = load ptr, ptr %5, align 8
  %.not.i.i.i.i4 = icmp eq ptr %27, null
  br i1 %.not.i.i.i.i4, label %_ZN4Luau8TypePackD2Ev.exit5, label %28

28:                                               ; preds = %25
  %29 = load ptr, ptr %11, align 8
  %30 = ptrtoint ptr %29 to i64
  %31 = ptrtoint ptr %27 to i64
  %32 = sub i64 %30, %31
  call void @_ZdlPvm(ptr noundef nonnull %27, i64 noundef %32) #20
  br label %_ZN4Luau8TypePackD2Ev.exit5

_ZN4Luau8TypePackD2Ev.exit5:                      ; preds = %25, %28
  resume { ptr, i32 } %26
}